target datalayout = "e-m:e-p270:32:32-p271:32:32-p272:64:64-i64:64-i128:128-f80:128-n8:16:32:64-S128"
target triple = "x86_64-pc-linux-gnu"

%struct.AVExpr = type { i32, double, i32, %union.anon, [3 x ptr], ptr, ptr }
%union.anon = type { ptr }
%struct.Parser = type { ptr, i32, ptr, ptr, ptr, ptr, ptr, ptr, ptr, ptr, i32, ptr, ptr, ptr }

; Function Attrs: nounwind uwtable
define internal ptr @make_eval_expr(i32 noundef %0, i32 noundef %1, ptr noundef %2, ptr noundef %3) #0 {
  %5 = alloca ptr, align 8
  %6 = alloca i32, align 4
  %7 = alloca i32, align 4
  %8 = alloca ptr, align 8
  %9 = alloca ptr, align 8
  %10 = alloca ptr, align 8
  %11 = alloca i32, align 4
  store i32 %0, ptr %6, align 4, !tbaa !17
  store i32 %1, ptr %7, align 4, !tbaa !17
  store ptr %2, ptr %8, align 8, !tbaa !21
  store ptr %3, ptr %9, align 8, !tbaa !21
  call void @llvm.lifetime.start.p0(i64 8, ptr %10) #12
  %12 = call noalias ptr @av_mallocz(i64 noundef 72)
  store ptr %12, ptr %10, align 8, !tbaa !21
  %13 = load ptr, ptr %10, align 8, !tbaa !21
  %14 = icmp ne ptr %13, null
  br i1 %14, label %16, label %15

15:                                               ; preds = %4
  store ptr null, ptr %5, align 8
  store i32 1, ptr %11, align 4
  br label %33

16:                                               ; preds = %4
  %17 = load i32, ptr %6, align 4, !tbaa !17
  %18 = load ptr, ptr %10, align 8, !tbaa !21
  %19 = getelementptr inbounds nuw %struct.AVExpr, ptr %18, i32 0, i32 0
  store i32 %17, ptr %19, align 8, !tbaa !49
  %20 = load i32, ptr %7, align 4, !tbaa !17
  %21 = sitofp i32 %20 to double
  %22 = load ptr, ptr %10, align 8, !tbaa !21
  %23 = getelementptr inbounds nuw %struct.AVExpr, ptr %22, i32 0, i32 1
  store double %21, ptr %23, align 8, !tbaa !59
  %24 = load ptr, ptr %8, align 8, !tbaa !21
  %25 = load ptr, ptr %10, align 8, !tbaa !21
  %26 = getelementptr inbounds nuw %struct.AVExpr, ptr %25, i32 0, i32 4
  %27 = getelementptr inbounds [3 x ptr], ptr %26, i64 0, i64 0
  store ptr %24, ptr %27, align 8, !tbaa !21
  %28 = load ptr, ptr %9, align 8, !tbaa !21
  %29 = load ptr, ptr %10, align 8, !tbaa !21
  %30 = getelementptr inbounds nuw %struct.AVExpr, ptr %29, i32 0, i32 4
  %31 = getelementptr inbounds [3 x ptr], ptr %30, i64 0, i64 1
  store ptr %28, ptr %31, align 8, !tbaa !21
  %32 = load ptr, ptr %10, align 8, !tbaa !21
  store ptr %32, ptr %5, align 8
  store i32 1, ptr %11, align 4
  br label %33

33:                                               ; preds = %16, %15
  call void @llvm.lifetime.end.p0(i64 8, ptr %10) #12
  %34 = load ptr, ptr %5, align 8
  ret ptr %34
}

; Function Attrs: nounwind uwtable
define internal i32 @parse_term(ptr noundef %0, ptr noundef %1) #0 {
  %3 = alloca i32, align 4
  %4 = alloca ptr, align 8
  %5 = alloca ptr, align 8
  %6 = alloca i32, align 4
  %7 = alloca ptr, align 8
  %8 = alloca ptr, align 8
  %9 = alloca ptr, align 8
  %10 = alloca i32, align 4
  %11 = alloca i32, align 4
  store ptr %0, ptr %4, align 8, !tbaa !23
  store ptr %1, ptr %5, align 8, !tbaa !46
  call void @llvm.lifetime.start.p0(i64 4, ptr %6) #12
  call void @llvm.lifetime.start.p0(i64 8, ptr %7) #12
  call void @llvm.lifetime.start.p0(i64 8, ptr %8) #12
  call void @llvm.lifetime.start.p0(i64 8, ptr %9) #12
  %12 = load ptr, ptr %5, align 8, !tbaa !46
  %13 = call i32 @parse_factor(ptr noundef %7, ptr noundef %12)
  store i32 %13, ptr %6, align 4, !tbaa !17
  %14 = icmp slt i32 %13, 0
  br i1 %14, label %15, label %17

15:                                               ; preds = %2
  %16 = load i32, ptr %6, align 4, !tbaa !17
  store i32 %16, ptr %3, align 4
  store i32 1, ptr %10, align 4
  br label %69

17:                                               ; preds = %2
  br label %18

18:                                               ; preds = %65, %17
  %19 = load ptr, ptr %5, align 8, !tbaa !46
  %20 = getelementptr inbounds nuw %struct.Parser, ptr %19, i32 0, i32 2
  %21 = load ptr, ptr %20, align 8, !tbaa !35
  %22 = getelementptr inbounds i8, ptr %21, i64 0
  %23 = load i8, ptr %22, align 1, !tbaa !12
  %24 = sext i8 %23 to i32
  %25 = icmp eq i32 %24, 42
  br i1 %25, label %34, label %26

26:                                               ; preds = %18
  %27 = load ptr, ptr %5, align 8, !tbaa !46
  %28 = getelementptr inbounds nuw %struct.Parser, ptr %27, i32 0, i32 2
  %29 = load ptr, ptr %28, align 8, !tbaa !35
  %30 = getelementptr inbounds i8, ptr %29, i64 0
  %31 = load i8, ptr %30, align 1, !tbaa !12
  %32 = sext i8 %31 to i32
  %33 = icmp eq i32 %32, 47
  br label %34

34:                                               ; preds = %26, %18
  %35 = phi i1 [ true, %18 ], [ %33, %26 ]
  br i1 %35, label %36, label %66

36:                                               ; preds = %34
  call void @llvm.lifetime.start.p0(i64 4, ptr %11) #12
  %37 = load ptr, ptr %5, align 8, !tbaa !46
  %38 = getelementptr inbounds nuw %struct.Parser, ptr %37, i32 0, i32 2
  %39 = load ptr, ptr %38, align 8, !tbaa !35
  %40 = getelementptr inbounds nuw i8, ptr %39, i32 1
  store ptr %40, ptr %38, align 8, !tbaa !35
  %41 = load i8, ptr %39, align 1, !tbaa !12
  %42 = sext i8 %41 to i32
  store i32 %42, ptr %11, align 4, !tbaa !17
  %43 = load ptr, ptr %7, align 8, !tbaa !21
  store ptr %43, ptr %8, align 8, !tbaa !21
  %44 = load ptr, ptr %5, align 8, !tbaa !46
  %45 = call i32 @parse_factor(ptr noundef %9, ptr noundef %44)
  store i32 %45, ptr %6, align 4, !tbaa !17
  %46 = icmp slt i32 %45, 0
  br i1 %46, label %47, label %50

47:                                               ; preds = %36
  %48 = load ptr, ptr %8, align 8, !tbaa !21
  call void @av_expr_free(ptr noundef %48)
  %49 = load i32, ptr %6, align 4, !tbaa !17
  store i32 %49, ptr %3, align 4
  store i32 1, ptr %10, align 4
  br label %63

50:                                               ; preds = %36
  %51 = load i32, ptr %11, align 4, !tbaa !17
  %52 = icmp eq i32 %51, 42
  %53 = select i1 %52, i32 19, i32 20
  %54 = load ptr, ptr %8, align 8, !tbaa !21
  %55 = load ptr, ptr %9, align 8, !tbaa !21
  %56 = call ptr @make_eval_expr(i32 noundef %53, i32 noundef 1, ptr noundef %54, ptr noundef %55)
  store ptr %56, ptr %7, align 8, !tbaa !21
  %57 = load ptr, ptr %7, align 8, !tbaa !21
  %58 = icmp ne ptr %57, null
  br i1 %58, label %62, label %59

59:                                               ; preds = %50
  %60 = load ptr, ptr %8, align 8, !tbaa !21
  call void @av_expr_free(ptr noundef %60)
  %61 = load ptr, ptr %9, align 8, !tbaa !21
  call void @av_expr_free(ptr noundef %61)
  store i32 -12, ptr %3, align 4
  store i32 1, ptr %10, align 4
  br label %63

62:                                               ; preds = %50
  store i32 0, ptr %10, align 4
  br label %63

63:                                               ; preds = %62, %59, %47
  call void @llvm.lifetime.end.p0(i64 4, ptr %11) #12
  %64 = load i32, ptr %10, align 4
  switch i32 %64, label %69 [
    i32 0, label %65
  ]

65:                                               ; preds = %63
  br label %18, !llvm.loop !70

66:                                               ; preds = %34
  %67 = load ptr, ptr %7, align 8, !tbaa !21
  %68 = load ptr, ptr %4, align 8, !tbaa !23
  store ptr %67, ptr %68, align 8, !tbaa !21
  store i32 0, ptr %3, align 4
  store i32 1, ptr %10, align 4
  br label %69

69:                                               ; preds = %66, %63, %15
  call void @llvm.lifetime.end.p0(i64 8, ptr %9) #12
  call void @llvm.lifetime.end.p0(i64 8, ptr %8) #12
  call void @llvm.lifetime.end.p0(i64 8, ptr %7) #12
  call void @llvm.lifetime.end.p0(i64 4, ptr %6) #12
  %70 = load i32, ptr %3, align 4
  ret i32 %70
}