; Function Attrs: nounwind uwtable
define internal fastcc range(i32 -2147483648, 1) i32 @parse_term(ptr noundef nonnull writeonly captures(none) %0, ptr noundef nonnull %1) unnamed_addr #3 {
  %3 = alloca ptr, align 8
  %4 = alloca ptr, align 8
  call void @llvm.lifetime.start.p0(i64 8, ptr nonnull %3) #14
  call void @llvm.lifetime.start.p0(i64 8, ptr nonnull %4) #14
  %5 = call fastcc i32 @parse_factor(ptr noundef %3, ptr noundef %1)
  %6 = icmp slt i32 %5, 0
  br i1 %6, label %.thread, label %.preheader

.preheader:                                       ; preds = %2
  %7 = getelementptr inbounds nuw i8, ptr %1, i64 16
  %.promoted = load ptr, ptr %3, align 8
  br label %8

8:                                                ; preds = %.preheader, %21
  %9 = phi ptr [ %.promoted, %.preheader ], [ %19, %21 ]
  %10 = load ptr, ptr %7, align 8, !tbaa !28
  %11 = load i8, ptr %10, align 1, !tbaa !4
  switch i8 %11, label %27 [
    i8 42, label %.critedge
    i8 47, label %.critedge
  ]

.critedge:                                        ; preds = %8, %8
  %12 = getelementptr inbounds nuw i8, ptr %10, i64 1
  store ptr %12, ptr %7, align 8, !tbaa !28
  %13 = load i8, ptr %10, align 1, !tbaa !4
  %14 = call fastcc i32 @parse_factor(ptr noundef %4, ptr noundef %1)
  %15 = icmp slt i32 %14, 0
  br i1 %15, label %16, label %17

16:                                               ; preds = %.critedge
  tail call void @av_expr_free(ptr noundef %9)
  br label %.thread

17:                                               ; preds = %.critedge
  %18 = load ptr, ptr %4, align 8, !tbaa !15
  %19 = tail call noalias ptr @av_mallocz(i64 noundef 72) #14
  %.not.i = icmp eq ptr %19, null
  br i1 %.not.i, label %20, label %21

20:                                               ; preds = %17
  tail call void @av_expr_free(ptr noundef %9)
  tail call void @av_expr_free(ptr noundef %18)
  br label %.thread

21:                                               ; preds = %17
  %22 = icmp eq i8 %13, 42
  %23 = select i1 %22, i32 19, i32 20
  store i32 %23, ptr %19, align 8, !tbaa !39
  %24 = getelementptr inbounds nuw i8, ptr %19, i64 8
  store double 1.000000e+00, ptr %24, align 8, !tbaa !40
  %25 = getelementptr inbounds nuw i8, ptr %19, i64 32
  store ptr %9, ptr %25, align 8, !tbaa !15
  %26 = getelementptr inbounds nuw i8, ptr %19, i64 40
  store ptr %18, ptr %26, align 8, !tbaa !15
  br label %8, !llvm.loop !62

27:                                               ; preds = %8
  store ptr %9, ptr %0, align 8, !tbaa !15
  br label %.thread

.thread:                                          ; preds = %20, %16, %2, %27
  %.0 = phi i32 [ 0, %27 ], [ %5, %2 ], [ -12, %20 ], [ %14, %16 ]
  call void @llvm.lifetime.end.p0(i64 8, ptr nonnull %4) #14
  call void @llvm.lifetime.end.p0(i64 8, ptr nonnull %3) #14
  ret i32 %.0
}